target datalayout = "e-m:e-p270:32:32-p271:32:32-p272:64:64-i64:64-i128:128-f80:128-n8:16:32:64-S128"
target triple = "x86_64-unknown-linux-gnu"

%"class.icu_75::UnicodeString" = type { %"class.icu_75::Replaceable", %"union.icu_75::UnicodeString::StackBufferOrFields" }
%"class.icu_75::Replaceable" = type { %"class.icu_75::UObject" }
%"class.icu_75::UObject" = type { ptr }
%"union.icu_75::UnicodeString::StackBufferOrFields" = type { %struct.anon.0, [32 x i8] }
%struct.anon.0 = type { i16, i32, i32, ptr }
%"class.icu_75::UCharsTrieBuilder" = type { %"class.icu_75::StringTrieBuilder", %"class.icu_75::UnicodeString", ptr, i32, i32, ptr, i32, i32 }
%"class.icu_75::StringTrieBuilder" = type { %"class.icu_75::UObject", ptr }

; Function Attrs: mustprogress uwtable
define noundef i32 @_ZN6icu_7517UCharsTrieBuilder12writeDeltaToEi(ptr noundef nonnull align 8 dereferenceable(112) %this, i32 noundef %jumpTarget) unnamed_addr #0 align 2 {
entry:
  %retval = alloca i32, align 4
  %this.addr = alloca ptr, align 8
  %jumpTarget.addr = alloca i32, align 4
  %i = alloca i32, align 4
  %intUnits = alloca [3 x i16], align 2
  %length = alloca i32, align 4
  store ptr %this, ptr %this.addr, align 8
  store i32 %jumpTarget, ptr %jumpTarget.addr, align 4
  %this1 = load ptr, ptr %this.addr, align 8
  %ucharsLength = getelementptr inbounds %"class.icu_75::UCharsTrieBuilder", ptr %this1, i32 0, i32 7
  %0 = load i32, ptr %ucharsLength, align 4
  %1 = load i32, ptr %jumpTarget.addr, align 4
  %sub = sub nsw i32 %0, %1
  store i32 %sub, ptr %i, align 4
  %2 = load i32, ptr %i, align 4
  %cmp = icmp sle i32 %2, 64511
  br i1 %cmp, label %if.then, label %if.end

if.then:                                          ; preds = %entry
  %3 = load i32, ptr %i, align 4
  %vtable = load ptr, ptr %this1, align 8
  %vfn = getelementptr inbounds ptr, ptr %vtable, i64 15
  %4 = load ptr, ptr %vfn, align 8
  %call = call noundef i32 %4(ptr noundef nonnull align 8 dereferenceable(112) %this1, i32 noundef %3)
  store i32 %call, ptr %retval, align 4
  br label %return

if.end:                                           ; preds = %entry
  %5 = load i32, ptr %i, align 4
  %cmp2 = icmp sle i32 %5, 67043327
  br i1 %cmp2, label %if.then3, label %if.else

if.then3:                                         ; preds = %if.end
  %6 = load i32, ptr %i, align 4
  %shr = ashr i32 %6, 16
  %add = add nsw i32 64512, %shr
  %conv = trunc i32 %add to i16
  %arrayidx = getelementptr inbounds [3 x i16], ptr %intUnits, i64 0, i64 0
  store i16 %conv, ptr %arrayidx, align 2
  store i32 1, ptr %length, align 4
  br label %if.end8

if.else:                                          ; preds = %if.end
  %arrayidx4 = getelementptr inbounds [3 x i16], ptr %intUnits, i64 0, i64 0
  store i16 -1, ptr %arrayidx4, align 2
  %7 = load i32, ptr %i, align 4
  %shr5 = ashr i32 %7, 16
  %conv6 = trunc i32 %shr5 to i16
  %arrayidx7 = getelementptr inbounds [3 x i16], ptr %intUnits, i64 0, i64 1
  store i16 %conv6, ptr %arrayidx7, align 2
  store i32 2, ptr %length, align 4
  br label %if.end8

if.end8:                                          ; preds = %if.else, %if.then3
  %8 = load i32, ptr %i, align 4
  %conv9 = trunc i32 %8 to i16
  %9 = load i32, ptr %length, align 4
  %inc = add nsw i32 %9, 1
  store i32 %inc, ptr %length, align 4
  %idxprom = sext i32 %9 to i64
  %arrayidx10 = getelementptr inbounds [3 x i16], ptr %intUnits, i64 0, i64 %idxprom
  store i16 %conv9, ptr %arrayidx10, align 2
  %arraydecay = getelementptr inbounds [3 x i16], ptr %intUnits, i64 0, i64 0
  %10 = load i32, ptr %length, align 4
  %call11 = call noundef i32 @_ZN6icu_7517UCharsTrieBuilder5writeEPKDsi(ptr noundef nonnull align 8 dereferenceable(112) %this1, ptr noundef %arraydecay, i32 noundef %10)
  store i32 %call11, ptr %retval, align 4
  br label %return

return:                                           ; preds = %if.end8, %if.then
  %11 = load i32, ptr %retval, align 4
  ret i32 %11
}