; Function Attrs: mustprogress uwtable
define noundef i32 @_ZN6icu_7517UCharsTrieBuilder12writeDeltaToEi(ptr noundef nonnull align 8 dereferenceable(112) %this, i32 noundef %jumpTarget) unnamed_addr #0 align 2 {
entry:
  %intUnits = alloca [3 x i16], align 2
  %ucharsLength = getelementptr inbounds i8, ptr %this, i64 108
  %0 = load i32, ptr %ucharsLength, align 4
  %sub = sub nsw i32 %0, %jumpTarget
  %cmp = icmp slt i32 %sub, 64512
  br i1 %cmp, label %if.then, label %if.end

if.then:                                          ; preds = %entry
  %vtable = load ptr, ptr %this, align 8
  %vfn = getelementptr inbounds i8, ptr %vtable, i64 120
  %1 = load ptr, ptr %vfn, align 8
  %call = tail call noundef i32 %1(ptr noundef nonnull align 8 dereferenceable(112) %this, i32 noundef %sub)
  br label %return

if.end:                                           ; preds = %entry
  %cmp2 = icmp ult i32 %sub, 67043328
  %shr = lshr i32 %sub, 16
  %2 = trunc i32 %shr to i16
  br i1 %cmp2, label %if.then3, label %if.else

if.then3:                                         ; preds = %if.end
  %conv = or disjoint i16 %2, -1024
  br label %if.end8

if.else:                                          ; preds = %if.end
  %arrayidx7 = getelementptr inbounds i8, ptr %intUnits, i64 2
  store i16 %2, ptr %arrayidx7, align 2
  br label %if.end8

if.end8:                                          ; preds = %if.else, %if.then3
  %.sink = phi i16 [ %conv, %if.then3 ], [ -1, %if.else ]
  %length.0 = phi i32 [ 1, %if.then3 ], [ 2, %if.else ]
  store i16 %.sink, ptr %intUnits, align 2
  %conv9 = trunc i32 %sub to i16
  %inc = add nuw nsw i32 %length.0, 1
  %idxprom = zext nneg i32 %length.0 to i64
  %arrayidx10 = getelementptr inbounds [3 x i16], ptr %intUnits, i64 0, i64 %idxprom
  store i16 %conv9, ptr %arrayidx10, align 2
  %call11 = call noundef i32 @_ZN6icu_7517UCharsTrieBuilder5writeEPKDsi(ptr noundef nonnull align 8 dereferenceable(112) %this, ptr noundef nonnull %intUnits, i32 noundef %inc)
  br label %return

return:                                           ; preds = %if.end8, %if.then
  %retval.0 = phi i32 [ %call, %if.then ], [ %call11, %if.end8 ]
  ret i32 %retval.0
}